; Function Attrs: nounwind uwtable
define dso_local void @onig_free_body(ptr noundef %0) local_unnamed_addr #6 {
  %.not = icmp eq ptr %0, null
  br i1 %.not, label %73, label %2

2:                                                ; preds = %1
  %3 = load ptr, ptr %0, align 8, !tbaa !17
  %4 = icmp eq ptr %3, null
  br i1 %4, label %ops_free.exit, label %.preheader.i

.preheader.i:                                     ; preds = %2
  %5 = getelementptr inbounds nuw i8, ptr %0, i64 24
  %6 = load i32, ptr %5, align 8, !tbaa !18
  %7 = icmp sgt i32 %6, 0
  br i1 %7, label %.lr.ph.i, label %._crit_edge.i

.lr.ph.i:                                         ; preds = %.preheader.i
  %8 = getelementptr inbounds nuw i8, ptr %0, i64 8
  %9 = getelementptr inbounds nuw i8, ptr %0, i64 32
  %10 = getelementptr inbounds nuw i8, ptr %0, i64 40
  br label %11

11:                                               ; preds = %36, %.lr.ph.i
  %12 = phi i32 [ %6, %.lr.ph.i ], [ %37, %36 ]
  %indvars.iv.i = phi i64 [ 0, %.lr.ph.i ], [ %indvars.iv.next.i, %36 ]
  %13 = load ptr, ptr %0, align 8, !tbaa !17
  %14 = getelementptr inbounds nuw %struct.Operation, ptr %13, i64 %indvars.iv.i
  %15 = load ptr, ptr %8, align 8, !tbaa !19
  %16 = getelementptr inbounds nuw i32, ptr %15, i64 %indvars.iv.i
  %17 = load i32, ptr %16, align 4, !tbaa !4
  switch i32 %17, label %36 [
    i32 13, label %18
    i32 7, label %23
    i32 11, label %23
    i32 12, label %23
    i32 50, label %31
    i32 48, label %31
    i32 47, label %31
    i32 49, label %31
    i32 46, label %31
    i32 45, label %31
    i32 16, label %28
    i32 19, label %28
    i32 17, label %.sink.split.sink.split.i
    i32 14, label %.sink.split.sink.split.i
    i32 18, label %.sink.split.sink.split.i
    i32 15, label %.sink.split.sink.split.i
  ]

18:                                               ; preds = %11
  %19 = getelementptr inbounds nuw i8, ptr %14, i64 8
  %20 = load ptr, ptr %19, align 8, !tbaa !20
  %21 = load ptr, ptr %9, align 8, !tbaa !21
  %.not.i.i = icmp ult ptr %20, %21
  br i1 %.not.i.i, label %.sink.split.i, label %is_in_string_pool.exit.i

is_in_string_pool.exit.i:                         ; preds = %18
  %22 = load ptr, ptr %10, align 8, !tbaa !22
  %.not34.i = icmp ult ptr %20, %22
  br i1 %.not34.i, label %36, label %.sink.split.i

23:                                               ; preds = %11, %11, %11
  %24 = getelementptr inbounds nuw i8, ptr %14, i64 8
  %25 = load ptr, ptr %24, align 8, !tbaa !20
  %26 = load ptr, ptr %9, align 8, !tbaa !21
  %.not.i29.i = icmp ult ptr %25, %26
  br i1 %.not.i29.i, label %.sink.split.i, label %is_in_string_pool.exit30.i

is_in_string_pool.exit30.i:                       ; preds = %23
  %27 = load ptr, ptr %10, align 8, !tbaa !22
  %.not33.i = icmp ult ptr %25, %27
  br i1 %.not33.i, label %36, label %.sink.split.i

28:                                               ; preds = %11, %11
  %29 = getelementptr inbounds nuw i8, ptr %14, i64 8
  %30 = load ptr, ptr %29, align 8, !tbaa !20
  tail call void @free(ptr noundef %30) #22
  br label %.sink.split.sink.split.i

31:                                               ; preds = %11, %11, %11, %11, %11, %11
  %32 = getelementptr inbounds nuw i8, ptr %14, i64 16
  %33 = load i32, ptr %32, align 8, !tbaa !20
  %.not.i = icmp eq i32 %33, 1
  br i1 %.not.i, label %36, label %.sink.split.sink.split.i

.sink.split.sink.split.i:                         ; preds = %31, %28, %11, %11, %11, %11
  %.sink38.i = phi i64 [ 16, %28 ], [ 8, %11 ], [ 8, %11 ], [ 8, %11 ], [ 8, %11 ], [ 8, %31 ]
  %34 = getelementptr inbounds nuw i8, ptr %14, i64 %.sink38.i
  %35 = load ptr, ptr %34, align 8, !tbaa !20
  br label %.sink.split.i

.sink.split.i:                                    ; preds = %.sink.split.sink.split.i, %is_in_string_pool.exit30.i, %23, %is_in_string_pool.exit.i, %18
  %.sink.i = phi ptr [ %20, %18 ], [ %20, %is_in_string_pool.exit.i ], [ %25, %23 ], [ %25, %is_in_string_pool.exit30.i ], [ %35, %.sink.split.sink.split.i ]
  tail call void @free(ptr noundef %.sink.i) #22
  %.pre = load i32, ptr %5, align 8, !tbaa !18
  br label %36

36:                                               ; preds = %.sink.split.i, %31, %is_in_string_pool.exit30.i, %is_in_string_pool.exit.i, %11
  %37 = phi i32 [ %.pre, %.sink.split.i ], [ %12, %31 ], [ %12, %is_in_string_pool.exit30.i ], [ %12, %is_in_string_pool.exit.i ], [ %12, %11 ]
  %indvars.iv.next.i = add nuw nsw i64 %indvars.iv.i, 1
  %38 = sext i32 %37 to i64
  %39 = icmp slt i64 %indvars.iv.next.i, %38
  br i1 %39, label %11, label %._crit_edge.loopexit.i, !llvm.loop !23

._crit_edge.loopexit.i:                           ; preds = %36
  %.pre.i = load ptr, ptr %0, align 8, !tbaa !17
  br label %._crit_edge.i

._crit_edge.i:                                    ; preds = %._crit_edge.loopexit.i, %.preheader.i
  %40 = phi ptr [ %.pre.i, %._crit_edge.loopexit.i ], [ %3, %.preheader.i ]
  tail call void @free(ptr noundef %40) #22
  %41 = getelementptr inbounds nuw i8, ptr %0, i64 8
  %42 = load ptr, ptr %41, align 8, !tbaa !19
  tail call void @free(ptr noundef %42) #22
  tail call void @llvm.memset.p0.i64(ptr noundef nonnull align 8 dereferenceable(32) %0, i8 0, i64 32, i1 false)
  br label %ops_free.exit

ops_free.exit:                                    ; preds = %2, %._crit_edge.i
  %43 = getelementptr inbounds nuw i8, ptr %0, i64 32
  %44 = load ptr, ptr %43, align 8, !tbaa !21
  %.not18 = icmp eq ptr %44, null
  br i1 %.not18, label %46, label %45

45:                                               ; preds = %ops_free.exit
  tail call void @free(ptr noundef nonnull %44) #22
  tail call void @llvm.memset.p0.i64(ptr noundef nonnull align 8 dereferenceable(16) %43, i8 0, i64 16, i1 false)
  br label %46

46:                                               ; preds = %45, %ops_free.exit
  %47 = getelementptr inbounds nuw i8, ptr %0, i64 160
  %48 = load ptr, ptr %47, align 8, !tbaa !25
  %.not19 = icmp eq ptr %48, null
  br i1 %.not19, label %50, label %49

49:                                               ; preds = %46
  tail call void @free(ptr noundef nonnull %48) #22
  br label %50

50:                                               ; preds = %49, %46
  %51 = getelementptr inbounds nuw i8, ptr %0, i64 88
  %52 = load ptr, ptr %51, align 8, !tbaa !26
  %.not20 = icmp eq ptr %52, null
  br i1 %.not20, label %54, label %53

53:                                               ; preds = %50
  tail call void @free(ptr noundef nonnull %52) #22
  br label %54

54:                                               ; preds = %53, %50
  %55 = getelementptr inbounds nuw i8, ptr %0, i64 448
  %56 = load ptr, ptr %55, align 8, !tbaa !8
  %.not21 = icmp eq ptr %56, null
  br i1 %.not21, label %71, label %57

57:                                               ; preds = %54
  %58 = load ptr, ptr %56, align 8, !tbaa !14
  %.not.i22 = icmp eq ptr %58, null
  br i1 %.not.i22, label %60, label %59

59:                                               ; preds = %57
  tail call void @free(ptr noundef nonnull %58) #22
  br label %60

60:                                               ; preds = %59, %57
  %61 = getelementptr inbounds nuw i8, ptr %56, i64 16
  %62 = load ptr, ptr %61, align 8, !tbaa !27
  %.not12.i = icmp eq ptr %62, null
  br i1 %.not12.i, label %65, label %63

63:                                               ; preds = %60
  %64 = tail call i32 @onig_callout_tag_table_free(ptr noundef nonnull %62) #22
  br label %65

65:                                               ; preds = %63, %60
  %66 = getelementptr inbounds nuw i8, ptr %56, i64 32
  %67 = load ptr, ptr %66, align 8, !tbaa !28
  %.not13.i = icmp eq ptr %67, null
  br i1 %.not13.i, label %free_regex_ext.exit, label %68

68:                                               ; preds = %65
  %69 = getelementptr inbounds nuw i8, ptr %56, i64 24
  %70 = load i32, ptr %69, align 8, !tbaa !29
  tail call void @onig_free_reg_callout_list(i32 noundef %70, ptr noundef nonnull %67) #22
  br label %free_regex_ext.exit

free_regex_ext.exit:                              ; preds = %65, %68
  tail call void @free(ptr noundef nonnull %56) #22
  store ptr null, ptr %55, align 8, !tbaa !8
  br label %71

71:                                               ; preds = %free_regex_ext.exit, %54
  %72 = tail call i32 @onig_names_free(ptr noundef nonnull %0) #22
  br label %73

73:                                               ; preds = %71, %1
  ret void
}